
EEPROM Test.elf:     file format elf32-avr

Sections:
Idx Name          Size      VMA       LMA       File off  Algn
  0 .text         000007f0  00000000  00000000  00000074  2**1
                  CONTENTS, ALLOC, LOAD, READONLY, CODE
  1 .data         0000002e  00800060  000007f0  00000864  2**0
                  CONTENTS, ALLOC, LOAD, DATA
  2 .comment      00000030  00000000  00000000  00000892  2**0
                  CONTENTS, READONLY
  3 .note.gnu.avr.deviceinfo 0000003c  00000000  00000000  000008c4  2**2
                  CONTENTS, READONLY
  4 .debug_info   000004e6  00000000  00000000  00000900  2**0
                  CONTENTS, READONLY, DEBUGGING
  5 .debug_abbrev 000004a3  00000000  00000000  00000de6  2**0
                  CONTENTS, READONLY, DEBUGGING
  6 .debug_line   00000116  00000000  00000000  00001289  2**0
                  CONTENTS, READONLY, DEBUGGING
  7 .debug_str    00000196  00000000  00000000  0000139f  2**0
                  CONTENTS, READONLY, DEBUGGING

Disassembly of section .text:

00000000 <__vectors>:
   0:	0c 94 2a 00 	jmp	0x54	; 0x54 <__ctors_end>
   4:	0c 94 3f 00 	jmp	0x7e	; 0x7e <__bad_interrupt>
   8:	0c 94 3f 00 	jmp	0x7e	; 0x7e <__bad_interrupt>
   c:	0c 94 3f 00 	jmp	0x7e	; 0x7e <__bad_interrupt>
  10:	0c 94 3f 00 	jmp	0x7e	; 0x7e <__bad_interrupt>
  14:	0c 94 3f 00 	jmp	0x7e	; 0x7e <__bad_interrupt>
  18:	0c 94 3f 00 	jmp	0x7e	; 0x7e <__bad_interrupt>
  1c:	0c 94 3f 00 	jmp	0x7e	; 0x7e <__bad_interrupt>
  20:	0c 94 3f 00 	jmp	0x7e	; 0x7e <__bad_interrupt>
  24:	0c 94 3f 00 	jmp	0x7e	; 0x7e <__bad_interrupt>
  28:	0c 94 3f 00 	jmp	0x7e	; 0x7e <__bad_interrupt>
  2c:	0c 94 3f 00 	jmp	0x7e	; 0x7e <__bad_interrupt>
  30:	0c 94 3f 00 	jmp	0x7e	; 0x7e <__bad_interrupt>
  34:	0c 94 3f 00 	jmp	0x7e	; 0x7e <__bad_interrupt>
  38:	0c 94 3f 00 	jmp	0x7e	; 0x7e <__bad_interrupt>
  3c:	0c 94 3f 00 	jmp	0x7e	; 0x7e <__bad_interrupt>
  40:	0c 94 3f 00 	jmp	0x7e	; 0x7e <__bad_interrupt>
  44:	0c 94 3f 00 	jmp	0x7e	; 0x7e <__bad_interrupt>
  48:	0c 94 3f 00 	jmp	0x7e	; 0x7e <__bad_interrupt>
  4c:	0c 94 3f 00 	jmp	0x7e	; 0x7e <__bad_interrupt>
  50:	0c 94 3f 00 	jmp	0x7e	; 0x7e <__bad_interrupt>

00000054 <__ctors_end>:
  54:	11 24       	eor	r1, r1
  56:	1f be       	out	0x3f, r1	; 63
  58:	cf e5       	ldi	r28, 0x5F	; 95
  5a:	d8 e0       	ldi	r29, 0x08	; 8
  5c:	de bf       	out	0x3e, r29	; 62
  5e:	cd bf       	out	0x3d, r28	; 61

00000060 <__do_copy_data>:
  60:	10 e0       	ldi	r17, 0x00	; 0
  62:	a0 e6       	ldi	r26, 0x60	; 96
  64:	b0 e0       	ldi	r27, 0x00	; 0
  66:	e0 ef       	ldi	r30, 0xF0	; 240
  68:	f7 e0       	ldi	r31, 0x07	; 7
  6a:	02 c0       	rjmp	.+4      	; 0x70 <__do_copy_data+0x10>
  6c:	05 90       	lpm	r0, Z+
  6e:	0d 92       	st	X+, r0
  70:	ae 38       	cpi	r26, 0x8E	; 142
  72:	b1 07       	cpc	r27, r17
  74:	d9 f7       	brne	.-10     	; 0x6c <__do_copy_data+0xc>
  76:	0e 94 79 03 	call	0x6f2	; 0x6f2 <main>
  7a:	0c 94 f6 03 	jmp	0x7ec	; 0x7ec <_exit>

0000007e <__bad_interrupt>:
  7e:	0c 94 00 00 	jmp	0	; 0x0 <__vectors>

00000082 <DIO_WritePin>:
  82:	98 2f       	mov	r25, r24
  84:	96 95       	lsr	r25
  86:	96 95       	lsr	r25
  88:	96 95       	lsr	r25
  8a:	87 70       	andi	r24, 0x07	; 7
  8c:	61 30       	cpi	r22, 0x01	; 1
  8e:	c9 f0       	breq	.+50     	; 0xc2 <DIO_WritePin+0x40>
  90:	61 11       	cpse	r22, r1
  92:	16 c0       	rjmp	.+44     	; 0xc0 <DIO_WritePin+0x3e>
  94:	91 30       	cpi	r25, 0x01	; 1
  96:	09 f4       	brne	.+2      	; 0x9a <DIO_WritePin+0x18>
  98:	48 c0       	rjmp	.+144    	; 0x12a <DIO_WritePin+0xa8>
  9a:	c8 f1       	brcs	.+114    	; 0x10e <DIO_WritePin+0x8c>
  9c:	92 30       	cpi	r25, 0x02	; 2
  9e:	e1 f0       	breq	.+56     	; 0xd8 <DIO_WritePin+0x56>
  a0:	93 30       	cpi	r25, 0x03	; 3
  a2:	09 f0       	breq	.+2      	; 0xa6 <DIO_WritePin+0x24>
  a4:	08 95       	ret
  a6:	42 b3       	in	r20, 0x12	; 18
  a8:	21 e0       	ldi	r18, 0x01	; 1
  aa:	30 e0       	ldi	r19, 0x00	; 0
  ac:	b9 01       	movw	r22, r18
  ae:	02 c0       	rjmp	.+4      	; 0xb4 <DIO_WritePin+0x32>
  b0:	66 0f       	add	r22, r22
  b2:	77 1f       	adc	r23, r23
  b4:	8a 95       	dec	r24
  b6:	e2 f7       	brpl	.-8      	; 0xb0 <DIO_WritePin+0x2e>
  b8:	cb 01       	movw	r24, r22
  ba:	80 95       	com	r24
  bc:	84 23       	and	r24, r20
  be:	82 bb       	out	0x12, r24	; 18
  c0:	08 95       	ret
  c2:	91 30       	cpi	r25, 0x01	; 1
  c4:	09 f4       	brne	.+2      	; 0xc8 <DIO_WritePin+0x46>
  c6:	3f c0       	rjmp	.+126    	; 0x146 <DIO_WritePin+0xc4>
  c8:	a8 f0       	brcs	.+42     	; 0xf4 <DIO_WritePin+0x72>
  ca:	92 30       	cpi	r25, 0x02	; 2
  cc:	09 f4       	brne	.+2      	; 0xd0 <DIO_WritePin+0x4e>
  ce:	55 c0       	rjmp	.+170    	; 0x17a <DIO_WritePin+0xf8>
  d0:	93 30       	cpi	r25, 0x03	; 3
  d2:	09 f4       	brne	.+2      	; 0xd6 <DIO_WritePin+0x54>
  d4:	45 c0       	rjmp	.+138    	; 0x160 <DIO_WritePin+0xde>
  d6:	08 95       	ret
  d8:	45 b3       	in	r20, 0x15	; 21
  da:	21 e0       	ldi	r18, 0x01	; 1
  dc:	30 e0       	ldi	r19, 0x00	; 0
  de:	b9 01       	movw	r22, r18
  e0:	02 c0       	rjmp	.+4      	; 0xe6 <DIO_WritePin+0x64>
  e2:	66 0f       	add	r22, r22
  e4:	77 1f       	adc	r23, r23
  e6:	8a 95       	dec	r24
  e8:	e2 f7       	brpl	.-8      	; 0xe2 <DIO_WritePin+0x60>
  ea:	cb 01       	movw	r24, r22
  ec:	80 95       	com	r24
  ee:	84 23       	and	r24, r20
  f0:	85 bb       	out	0x15, r24	; 21
  f2:	08 95       	ret
  f4:	4b b3       	in	r20, 0x1b	; 27
  f6:	21 e0       	ldi	r18, 0x01	; 1
  f8:	30 e0       	ldi	r19, 0x00	; 0
  fa:	b9 01       	movw	r22, r18
  fc:	02 c0       	rjmp	.+4      	; 0x102 <DIO_WritePin+0x80>
  fe:	66 0f       	add	r22, r22
 100:	77 1f       	adc	r23, r23
 102:	8a 95       	dec	r24
 104:	e2 f7       	brpl	.-8      	; 0xfe <DIO_WritePin+0x7c>
 106:	cb 01       	movw	r24, r22
 108:	84 2b       	or	r24, r20
 10a:	8b bb       	out	0x1b, r24	; 27
 10c:	08 95       	ret
 10e:	4b b3       	in	r20, 0x1b	; 27
 110:	21 e0       	ldi	r18, 0x01	; 1
 112:	30 e0       	ldi	r19, 0x00	; 0
 114:	b9 01       	movw	r22, r18
 116:	02 c0       	rjmp	.+4      	; 0x11c <DIO_WritePin+0x9a>
 118:	66 0f       	add	r22, r22
 11a:	77 1f       	adc	r23, r23
 11c:	8a 95       	dec	r24
 11e:	e2 f7       	brpl	.-8      	; 0x118 <DIO_WritePin+0x96>
 120:	cb 01       	movw	r24, r22
 122:	80 95       	com	r24
 124:	84 23       	and	r24, r20
 126:	8b bb       	out	0x1b, r24	; 27
 128:	08 95       	ret
 12a:	48 b3       	in	r20, 0x18	; 24
 12c:	21 e0       	ldi	r18, 0x01	; 1
 12e:	30 e0       	ldi	r19, 0x00	; 0
 130:	b9 01       	movw	r22, r18
 132:	02 c0       	rjmp	.+4      	; 0x138 <DIO_WritePin+0xb6>
 134:	66 0f       	add	r22, r22
 136:	77 1f       	adc	r23, r23
 138:	8a 95       	dec	r24
 13a:	e2 f7       	brpl	.-8      	; 0x134 <DIO_WritePin+0xb2>
 13c:	cb 01       	movw	r24, r22
 13e:	80 95       	com	r24
 140:	84 23       	and	r24, r20
 142:	88 bb       	out	0x18, r24	; 24
 144:	08 95       	ret
 146:	48 b3       	in	r20, 0x18	; 24
 148:	21 e0       	ldi	r18, 0x01	; 1
 14a:	30 e0       	ldi	r19, 0x00	; 0
 14c:	b9 01       	movw	r22, r18
 14e:	02 c0       	rjmp	.+4      	; 0x154 <DIO_WritePin+0xd2>
 150:	66 0f       	add	r22, r22
 152:	77 1f       	adc	r23, r23
 154:	8a 95       	dec	r24
 156:	e2 f7       	brpl	.-8      	; 0x150 <DIO_WritePin+0xce>
 158:	cb 01       	movw	r24, r22
 15a:	84 2b       	or	r24, r20
 15c:	88 bb       	out	0x18, r24	; 24
 15e:	08 95       	ret
 160:	42 b3       	in	r20, 0x12	; 18
 162:	21 e0       	ldi	r18, 0x01	; 1
 164:	30 e0       	ldi	r19, 0x00	; 0
 166:	b9 01       	movw	r22, r18
 168:	02 c0       	rjmp	.+4      	; 0x16e <DIO_WritePin+0xec>
 16a:	66 0f       	add	r22, r22
 16c:	77 1f       	adc	r23, r23
 16e:	8a 95       	dec	r24
 170:	e2 f7       	brpl	.-8      	; 0x16a <DIO_WritePin+0xe8>
 172:	cb 01       	movw	r24, r22
 174:	84 2b       	or	r24, r20
 176:	82 bb       	out	0x12, r24	; 18
 178:	08 95       	ret
 17a:	45 b3       	in	r20, 0x15	; 21
 17c:	21 e0       	ldi	r18, 0x01	; 1
 17e:	30 e0       	ldi	r19, 0x00	; 0
 180:	b9 01       	movw	r22, r18
 182:	02 c0       	rjmp	.+4      	; 0x188 <DIO_WritePin+0x106>
 184:	66 0f       	add	r22, r22
 186:	77 1f       	adc	r23, r23
 188:	8a 95       	dec	r24
 18a:	e2 f7       	brpl	.-8      	; 0x184 <DIO_WritePin+0x102>
 18c:	cb 01       	movw	r24, r22
 18e:	84 2b       	or	r24, r20
 190:	85 bb       	out	0x15, r24	; 21
 192:	08 95       	ret

00000194 <DIO_Init>:
 194:	e0 e6       	ldi	r30, 0x60	; 96
 196:	f0 e0       	ldi	r31, 0x00	; 0
 198:	80 e0       	ldi	r24, 0x00	; 0
 19a:	41 e0       	ldi	r20, 0x01	; 1
 19c:	50 e0       	ldi	r21, 0x00	; 0
 19e:	1f c0       	rjmp	.+62     	; 0x1de <DIO_Init+0x4a>
 1a0:	91 30       	cpi	r25, 0x01	; 1
 1a2:	f0 f1       	brcs	.+124    	; 0x220 <DIO_Init+0x8c>
 1a4:	92 30       	cpi	r25, 0x02	; 2
 1a6:	c1 f4       	brne	.+48     	; 0x1d8 <DIO_Init+0x44>
 1a8:	22 30       	cpi	r18, 0x02	; 2
 1aa:	09 f4       	brne	.+2      	; 0x1ae <DIO_Init+0x1a>
 1ac:	aa c0       	rjmp	.+340    	; 0x302 <DIO_Init+0x16e>
 1ae:	23 30       	cpi	r18, 0x03	; 3
 1b0:	09 f4       	brne	.+2      	; 0x1b4 <DIO_Init+0x20>
 1b2:	97 c0       	rjmp	.+302    	; 0x2e2 <DIO_Init+0x14e>
 1b4:	21 30       	cpi	r18, 0x01	; 1
 1b6:	09 f4       	brne	.+2      	; 0x1ba <DIO_Init+0x26>
 1b8:	b4 c0       	rjmp	.+360    	; 0x322 <DIO_Init+0x18e>
 1ba:	9a b3       	in	r25, 0x1a	; 26
 1bc:	ba 01       	movw	r22, r20
 1be:	02 c0       	rjmp	.+4      	; 0x1c4 <DIO_Init+0x30>
 1c0:	66 0f       	add	r22, r22
 1c2:	77 1f       	adc	r23, r23
 1c4:	3a 95       	dec	r19
 1c6:	e2 f7       	brpl	.-8      	; 0x1c0 <DIO_Init+0x2c>
 1c8:	9b 01       	movw	r18, r22
 1ca:	36 2f       	mov	r19, r22
 1cc:	30 95       	com	r19
 1ce:	93 23       	and	r25, r19
 1d0:	9a bb       	out	0x1a, r25	; 26
 1d2:	9b b3       	in	r25, 0x1b	; 27
 1d4:	29 2b       	or	r18, r25
 1d6:	2b bb       	out	0x1b, r18	; 27
 1d8:	8f 5f       	subi	r24, 0xFF	; 255
 1da:	80 32       	cpi	r24, 0x20	; 32
 1dc:	01 f1       	breq	.+64     	; 0x21e <DIO_Init+0x8a>
 1de:	91 91       	ld	r25, Z+
 1e0:	28 2f       	mov	r18, r24
 1e2:	26 95       	lsr	r18
 1e4:	26 95       	lsr	r18
 1e6:	26 95       	lsr	r18
 1e8:	38 2f       	mov	r19, r24
 1ea:	37 70       	andi	r19, 0x07	; 7
 1ec:	91 30       	cpi	r25, 0x01	; 1
 1ee:	c1 f6       	brne	.-80     	; 0x1a0 <DIO_Init+0xc>
 1f0:	22 30       	cpi	r18, 0x02	; 2
 1f2:	61 f1       	breq	.+88     	; 0x24c <DIO_Init+0xb8>
 1f4:	23 30       	cpi	r18, 0x03	; 3
 1f6:	51 f1       	breq	.+84     	; 0x24c <DIO_Init+0xb8>
 1f8:	21 30       	cpi	r18, 0x01	; 1
 1fa:	b9 f1       	breq	.+110    	; 0x26a <DIO_Init+0xd6>
 1fc:	9a b3       	in	r25, 0x1a	; 26
 1fe:	ba 01       	movw	r22, r20
 200:	02 c0       	rjmp	.+4      	; 0x206 <DIO_Init+0x72>
 202:	66 0f       	add	r22, r22
 204:	77 1f       	adc	r23, r23
 206:	3a 95       	dec	r19
 208:	e2 f7       	brpl	.-8      	; 0x202 <DIO_Init+0x6e>
 20a:	9b 01       	movw	r18, r22
 20c:	20 95       	com	r18
 20e:	92 23       	and	r25, r18
 210:	9a bb       	out	0x1a, r25	; 26
 212:	9b b3       	in	r25, 0x1b	; 27
 214:	29 23       	and	r18, r25
 216:	2b bb       	out	0x1b, r18	; 27
 218:	8f 5f       	subi	r24, 0xFF	; 255
 21a:	80 32       	cpi	r24, 0x20	; 32
 21c:	01 f7       	brne	.-64     	; 0x1de <DIO_Init+0x4a>
 21e:	08 95       	ret
 220:	22 30       	cpi	r18, 0x02	; 2
 222:	09 f4       	brne	.+2      	; 0x226 <DIO_Init+0x92>
 224:	4f c0       	rjmp	.+158    	; 0x2c4 <DIO_Init+0x130>
 226:	23 30       	cpi	r18, 0x03	; 3
 228:	f1 f1       	breq	.+124    	; 0x2a6 <DIO_Init+0x112>
 22a:	21 30       	cpi	r18, 0x01	; 1
 22c:	69 f1       	breq	.+90     	; 0x288 <DIO_Init+0xf4>
 22e:	9a b3       	in	r25, 0x1a	; 26
 230:	ba 01       	movw	r22, r20
 232:	02 c0       	rjmp	.+4      	; 0x238 <DIO_Init+0xa4>
 234:	66 0f       	add	r22, r22
 236:	77 1f       	adc	r23, r23
 238:	3a 95       	dec	r19
 23a:	e2 f7       	brpl	.-8      	; 0x234 <DIO_Init+0xa0>
 23c:	9b 01       	movw	r18, r22
 23e:	96 2b       	or	r25, r22
 240:	9a bb       	out	0x1a, r25	; 26
 242:	9b b3       	in	r25, 0x1b	; 27
 244:	20 95       	com	r18
 246:	29 23       	and	r18, r25
 248:	2b bb       	out	0x1b, r18	; 27
 24a:	c6 cf       	rjmp	.-116    	; 0x1d8 <DIO_Init+0x44>
 24c:	94 b3       	in	r25, 0x14	; 20
 24e:	ba 01       	movw	r22, r20
 250:	02 c0       	rjmp	.+4      	; 0x256 <DIO_Init+0xc2>
 252:	66 0f       	add	r22, r22
 254:	77 1f       	adc	r23, r23
 256:	3a 95       	dec	r19
 258:	e2 f7       	brpl	.-8      	; 0x252 <DIO_Init+0xbe>
 25a:	9b 01       	movw	r18, r22
 25c:	20 95       	com	r18
 25e:	92 23       	and	r25, r18
 260:	94 bb       	out	0x14, r25	; 20
 262:	95 b3       	in	r25, 0x15	; 21
 264:	29 23       	and	r18, r25
 266:	25 bb       	out	0x15, r18	; 21
 268:	b7 cf       	rjmp	.-146    	; 0x1d8 <DIO_Init+0x44>
 26a:	97 b3       	in	r25, 0x17	; 23
 26c:	ba 01       	movw	r22, r20
 26e:	02 c0       	rjmp	.+4      	; 0x274 <DIO_Init+0xe0>
 270:	66 0f       	add	r22, r22
 272:	77 1f       	adc	r23, r23
 274:	3a 95       	dec	r19
 276:	e2 f7       	brpl	.-8      	; 0x270 <DIO_Init+0xdc>
 278:	9b 01       	movw	r18, r22
 27a:	20 95       	com	r18
 27c:	92 23       	and	r25, r18
 27e:	97 bb       	out	0x17, r25	; 23
 280:	98 b3       	in	r25, 0x18	; 24
 282:	29 23       	and	r18, r25
 284:	28 bb       	out	0x18, r18	; 24
 286:	a8 cf       	rjmp	.-176    	; 0x1d8 <DIO_Init+0x44>
 288:	97 b3       	in	r25, 0x17	; 23
 28a:	ba 01       	movw	r22, r20
 28c:	02 c0       	rjmp	.+4      	; 0x292 <DIO_Init+0xfe>
 28e:	66 0f       	add	r22, r22
 290:	77 1f       	adc	r23, r23
 292:	3a 95       	dec	r19
 294:	e2 f7       	brpl	.-8      	; 0x28e <DIO_Init+0xfa>
 296:	9b 01       	movw	r18, r22
 298:	96 2b       	or	r25, r22
 29a:	97 bb       	out	0x17, r25	; 23
 29c:	98 b3       	in	r25, 0x18	; 24
 29e:	20 95       	com	r18
 2a0:	29 23       	and	r18, r25
 2a2:	28 bb       	out	0x18, r18	; 24
 2a4:	99 cf       	rjmp	.-206    	; 0x1d8 <DIO_Init+0x44>
 2a6:	91 b3       	in	r25, 0x11	; 17
 2a8:	ba 01       	movw	r22, r20
 2aa:	02 c0       	rjmp	.+4      	; 0x2b0 <DIO_Init+0x11c>
 2ac:	66 0f       	add	r22, r22
 2ae:	77 1f       	adc	r23, r23
 2b0:	3a 95       	dec	r19
 2b2:	e2 f7       	brpl	.-8      	; 0x2ac <DIO_Init+0x118>
 2b4:	9b 01       	movw	r18, r22
 2b6:	96 2b       	or	r25, r22
 2b8:	91 bb       	out	0x11, r25	; 17
 2ba:	92 b3       	in	r25, 0x12	; 18
 2bc:	20 95       	com	r18
 2be:	29 23       	and	r18, r25
 2c0:	22 bb       	out	0x12, r18	; 18
 2c2:	8a cf       	rjmp	.-236    	; 0x1d8 <DIO_Init+0x44>
 2c4:	94 b3       	in	r25, 0x14	; 20
 2c6:	ba 01       	movw	r22, r20
 2c8:	02 c0       	rjmp	.+4      	; 0x2ce <DIO_Init+0x13a>
 2ca:	66 0f       	add	r22, r22
 2cc:	77 1f       	adc	r23, r23
 2ce:	3a 95       	dec	r19
 2d0:	e2 f7       	brpl	.-8      	; 0x2ca <DIO_Init+0x136>
 2d2:	9b 01       	movw	r18, r22
 2d4:	96 2b       	or	r25, r22
 2d6:	94 bb       	out	0x14, r25	; 20
 2d8:	95 b3       	in	r25, 0x15	; 21
 2da:	20 95       	com	r18
 2dc:	29 23       	and	r18, r25
 2de:	25 bb       	out	0x15, r18	; 21
 2e0:	7b cf       	rjmp	.-266    	; 0x1d8 <DIO_Init+0x44>
 2e2:	91 b3       	in	r25, 0x11	; 17
 2e4:	ba 01       	movw	r22, r20
 2e6:	02 c0       	rjmp	.+4      	; 0x2ec <DIO_Init+0x158>
 2e8:	66 0f       	add	r22, r22
 2ea:	77 1f       	adc	r23, r23
 2ec:	3a 95       	dec	r19
 2ee:	e2 f7       	brpl	.-8      	; 0x2e8 <DIO_Init+0x154>
 2f0:	9b 01       	movw	r18, r22
 2f2:	36 2f       	mov	r19, r22
 2f4:	30 95       	com	r19
 2f6:	93 23       	and	r25, r19
 2f8:	91 bb       	out	0x11, r25	; 17
 2fa:	92 b3       	in	r25, 0x12	; 18
 2fc:	29 2b       	or	r18, r25
 2fe:	22 bb       	out	0x12, r18	; 18
 300:	6b cf       	rjmp	.-298    	; 0x1d8 <DIO_Init+0x44>
 302:	94 b3       	in	r25, 0x14	; 20
 304:	ba 01       	movw	r22, r20
 306:	02 c0       	rjmp	.+4      	; 0x30c <DIO_Init+0x178>
 308:	66 0f       	add	r22, r22
 30a:	77 1f       	adc	r23, r23
 30c:	3a 95       	dec	r19
 30e:	e2 f7       	brpl	.-8      	; 0x308 <DIO_Init+0x174>
 310:	9b 01       	movw	r18, r22
 312:	36 2f       	mov	r19, r22
 314:	30 95       	com	r19
 316:	93 23       	and	r25, r19
 318:	94 bb       	out	0x14, r25	; 20
 31a:	95 b3       	in	r25, 0x15	; 21
 31c:	29 2b       	or	r18, r25
 31e:	25 bb       	out	0x15, r18	; 21
 320:	5b cf       	rjmp	.-330    	; 0x1d8 <DIO_Init+0x44>
 322:	97 b3       	in	r25, 0x17	; 23
 324:	ba 01       	movw	r22, r20
 326:	02 c0       	rjmp	.+4      	; 0x32c <DIO_Init+0x198>
 328:	66 0f       	add	r22, r22
 32a:	77 1f       	adc	r23, r23
 32c:	3a 95       	dec	r19
 32e:	e2 f7       	brpl	.-8      	; 0x328 <DIO_Init+0x194>
 330:	9b 01       	movw	r18, r22
 332:	36 2f       	mov	r19, r22
 334:	30 95       	com	r19
 336:	93 23       	and	r25, r19
 338:	97 bb       	out	0x17, r25	; 23
 33a:	98 b3       	in	r25, 0x18	; 24
 33c:	29 2b       	or	r18, r25
 33e:	28 bb       	out	0x18, r18	; 24
 340:	4b cf       	rjmp	.-362    	; 0x1d8 <DIO_Init+0x44>

00000342 <EEPROM_Write>:
 342:	e1 99       	sbic	0x1c, 1	; 28
 344:	fe cf       	rjmp	.-4      	; 0x342 <EEPROM_Write>
 346:	7f bb       	out	0x1f, r23	; 31
 348:	6e bb       	out	0x1e, r22	; 30
 34a:	8d bb       	out	0x1d, r24	; 29
 34c:	e2 9a       	sbi	0x1c, 2	; 28
 34e:	e1 9a       	sbi	0x1c, 1	; 28
 350:	08 95       	ret

00000352 <EEPROM_Read>:
 352:	e1 99       	sbic	0x1c, 1	; 28
 354:	fe cf       	rjmp	.-4      	; 0x352 <EEPROM_Read>
 356:	7f bb       	out	0x1f, r23	; 31
 358:	6e bb       	out	0x1e, r22	; 30
 35a:	e0 9a       	sbi	0x1c, 0	; 28
 35c:	2d b3       	in	r18, 0x1d	; 29
 35e:	fc 01       	movw	r30, r24
 360:	20 83       	st	Z, r18
 362:	08 95       	ret

00000364 <LCD_WriteData>:
 364:	cf 93       	push	r28
 366:	c8 2f       	mov	r28, r24
 368:	61 e0       	ldi	r22, 0x01	; 1
 36a:	81 e0       	ldi	r24, 0x01	; 1
 36c:	0e 94 41 00 	call	0x82	; 0x82 <DIO_WritePin>
 370:	6c 2f       	mov	r22, r28
 372:	66 1f       	adc	r22, r22
 374:	66 27       	eor	r22, r22
 376:	66 1f       	adc	r22, r22
 378:	86 e0       	ldi	r24, 0x06	; 6
 37a:	0e 94 41 00 	call	0x82	; 0x82 <DIO_WritePin>
 37e:	c6 fb       	bst	r28, 6
 380:	66 27       	eor	r22, r22
 382:	60 f9       	bld	r22, 0
 384:	85 e0       	ldi	r24, 0x05	; 5
 386:	0e 94 41 00 	call	0x82	; 0x82 <DIO_WritePin>
 38a:	c5 fb       	bst	r28, 5
 38c:	66 27       	eor	r22, r22
 38e:	60 f9       	bld	r22, 0
 390:	84 e0       	ldi	r24, 0x04	; 4
 392:	0e 94 41 00 	call	0x82	; 0x82 <DIO_WritePin>
 396:	c4 fb       	bst	r28, 4
 398:	66 27       	eor	r22, r22
 39a:	60 f9       	bld	r22, 0
 39c:	83 e0       	ldi	r24, 0x03	; 3
 39e:	0e 94 41 00 	call	0x82	; 0x82 <DIO_WritePin>
 3a2:	61 e0       	ldi	r22, 0x01	; 1
 3a4:	82 e0       	ldi	r24, 0x02	; 2
 3a6:	0e 94 41 00 	call	0x82	; 0x82 <DIO_WritePin>
 3aa:	8f ec       	ldi	r24, 0xCF	; 207
 3ac:	97 e0       	ldi	r25, 0x07	; 7
 3ae:	01 97       	sbiw	r24, 0x01	; 1
 3b0:	f1 f7       	brne	.-4      	; 0x3ae <LCD_WriteData+0x4a>
 3b2:	00 c0       	rjmp	.+0      	; 0x3b4 <LCD_WriteData+0x50>
 3b4:	00 00       	nop
 3b6:	60 e0       	ldi	r22, 0x00	; 0
 3b8:	82 e0       	ldi	r24, 0x02	; 2
 3ba:	0e 94 41 00 	call	0x82	; 0x82 <DIO_WritePin>
 3be:	8f ec       	ldi	r24, 0xCF	; 207
 3c0:	97 e0       	ldi	r25, 0x07	; 7
 3c2:	01 97       	sbiw	r24, 0x01	; 1
 3c4:	f1 f7       	brne	.-4      	; 0x3c2 <LCD_WriteData+0x5e>
 3c6:	00 c0       	rjmp	.+0      	; 0x3c8 <LCD_WriteData+0x64>
 3c8:	00 00       	nop
 3ca:	c3 fb       	bst	r28, 3
 3cc:	66 27       	eor	r22, r22
 3ce:	60 f9       	bld	r22, 0
 3d0:	86 e0       	ldi	r24, 0x06	; 6
 3d2:	0e 94 41 00 	call	0x82	; 0x82 <DIO_WritePin>
 3d6:	c2 fb       	bst	r28, 2
 3d8:	66 27       	eor	r22, r22
 3da:	60 f9       	bld	r22, 0
 3dc:	85 e0       	ldi	r24, 0x05	; 5
 3de:	0e 94 41 00 	call	0x82	; 0x82 <DIO_WritePin>
 3e2:	c1 fb       	bst	r28, 1
 3e4:	66 27       	eor	r22, r22
 3e6:	60 f9       	bld	r22, 0
 3e8:	84 e0       	ldi	r24, 0x04	; 4
 3ea:	0e 94 41 00 	call	0x82	; 0x82 <DIO_WritePin>
 3ee:	6c 2f       	mov	r22, r28
 3f0:	61 70       	andi	r22, 0x01	; 1
 3f2:	83 e0       	ldi	r24, 0x03	; 3
 3f4:	0e 94 41 00 	call	0x82	; 0x82 <DIO_WritePin>
 3f8:	61 e0       	ldi	r22, 0x01	; 1
 3fa:	82 e0       	ldi	r24, 0x02	; 2
 3fc:	0e 94 41 00 	call	0x82	; 0x82 <DIO_WritePin>
 400:	8f ec       	ldi	r24, 0xCF	; 207
 402:	97 e0       	ldi	r25, 0x07	; 7
 404:	01 97       	sbiw	r24, 0x01	; 1
 406:	f1 f7       	brne	.-4      	; 0x404 <__EEPROM_REGION_LENGTH__+0x4>
 408:	00 c0       	rjmp	.+0      	; 0x40a <__EEPROM_REGION_LENGTH__+0xa>
 40a:	00 00       	nop
 40c:	60 e0       	ldi	r22, 0x00	; 0
 40e:	82 e0       	ldi	r24, 0x02	; 2
 410:	0e 94 41 00 	call	0x82	; 0x82 <DIO_WritePin>
 414:	8f ec       	ldi	r24, 0xCF	; 207
 416:	97 e0       	ldi	r25, 0x07	; 7
 418:	01 97       	sbiw	r24, 0x01	; 1
 41a:	f1 f7       	brne	.-4      	; 0x418 <__EEPROM_REGION_LENGTH__+0x18>
 41c:	00 c0       	rjmp	.+0      	; 0x41e <__EEPROM_REGION_LENGTH__+0x1e>
 41e:	00 00       	nop
 420:	cf 91       	pop	r28
 422:	08 95       	ret

00000424 <LCD_WriteCommand>:
 424:	cf 93       	push	r28
 426:	c8 2f       	mov	r28, r24
 428:	60 e0       	ldi	r22, 0x00	; 0
 42a:	81 e0       	ldi	r24, 0x01	; 1
 42c:	0e 94 41 00 	call	0x82	; 0x82 <DIO_WritePin>
 430:	6c 2f       	mov	r22, r28
 432:	66 1f       	adc	r22, r22
 434:	66 27       	eor	r22, r22
 436:	66 1f       	adc	r22, r22
 438:	86 e0       	ldi	r24, 0x06	; 6
 43a:	0e 94 41 00 	call	0x82	; 0x82 <DIO_WritePin>
 43e:	c6 fb       	bst	r28, 6
 440:	66 27       	eor	r22, r22
 442:	60 f9       	bld	r22, 0
 444:	85 e0       	ldi	r24, 0x05	; 5
 446:	0e 94 41 00 	call	0x82	; 0x82 <DIO_WritePin>
 44a:	c5 fb       	bst	r28, 5
 44c:	66 27       	eor	r22, r22
 44e:	60 f9       	bld	r22, 0
 450:	84 e0       	ldi	r24, 0x04	; 4
 452:	0e 94 41 00 	call	0x82	; 0x82 <DIO_WritePin>
 456:	c4 fb       	bst	r28, 4
 458:	66 27       	eor	r22, r22
 45a:	60 f9       	bld	r22, 0
 45c:	83 e0       	ldi	r24, 0x03	; 3
 45e:	0e 94 41 00 	call	0x82	; 0x82 <DIO_WritePin>
 462:	61 e0       	ldi	r22, 0x01	; 1
 464:	82 e0       	ldi	r24, 0x02	; 2
 466:	0e 94 41 00 	call	0x82	; 0x82 <DIO_WritePin>
 46a:	8f ec       	ldi	r24, 0xCF	; 207
 46c:	97 e0       	ldi	r25, 0x07	; 7
 46e:	01 97       	sbiw	r24, 0x01	; 1
 470:	f1 f7       	brne	.-4      	; 0x46e <LCD_WriteCommand+0x4a>
 472:	00 c0       	rjmp	.+0      	; 0x474 <LCD_WriteCommand+0x50>
 474:	00 00       	nop
 476:	60 e0       	ldi	r22, 0x00	; 0
 478:	82 e0       	ldi	r24, 0x02	; 2
 47a:	0e 94 41 00 	call	0x82	; 0x82 <DIO_WritePin>
 47e:	8f ec       	ldi	r24, 0xCF	; 207
 480:	97 e0       	ldi	r25, 0x07	; 7
 482:	01 97       	sbiw	r24, 0x01	; 1
 484:	f1 f7       	brne	.-4      	; 0x482 <LCD_WriteCommand+0x5e>
 486:	00 c0       	rjmp	.+0      	; 0x488 <LCD_WriteCommand+0x64>
 488:	00 00       	nop
 48a:	c3 fb       	bst	r28, 3
 48c:	66 27       	eor	r22, r22
 48e:	60 f9       	bld	r22, 0
 490:	86 e0       	ldi	r24, 0x06	; 6
 492:	0e 94 41 00 	call	0x82	; 0x82 <DIO_WritePin>
 496:	c2 fb       	bst	r28, 2
 498:	66 27       	eor	r22, r22
 49a:	60 f9       	bld	r22, 0
 49c:	85 e0       	ldi	r24, 0x05	; 5
 49e:	0e 94 41 00 	call	0x82	; 0x82 <DIO_WritePin>
 4a2:	c1 fb       	bst	r28, 1
 4a4:	66 27       	eor	r22, r22
 4a6:	60 f9       	bld	r22, 0
 4a8:	84 e0       	ldi	r24, 0x04	; 4
 4aa:	0e 94 41 00 	call	0x82	; 0x82 <DIO_WritePin>
 4ae:	6c 2f       	mov	r22, r28
 4b0:	61 70       	andi	r22, 0x01	; 1
 4b2:	83 e0       	ldi	r24, 0x03	; 3
 4b4:	0e 94 41 00 	call	0x82	; 0x82 <DIO_WritePin>
 4b8:	61 e0       	ldi	r22, 0x01	; 1
 4ba:	82 e0       	ldi	r24, 0x02	; 2
 4bc:	0e 94 41 00 	call	0x82	; 0x82 <DIO_WritePin>
 4c0:	8f ec       	ldi	r24, 0xCF	; 207
 4c2:	97 e0       	ldi	r25, 0x07	; 7
 4c4:	01 97       	sbiw	r24, 0x01	; 1
 4c6:	f1 f7       	brne	.-4      	; 0x4c4 <LCD_WriteCommand+0xa0>
 4c8:	00 c0       	rjmp	.+0      	; 0x4ca <LCD_WriteCommand+0xa6>
 4ca:	00 00       	nop
 4cc:	60 e0       	ldi	r22, 0x00	; 0
 4ce:	82 e0       	ldi	r24, 0x02	; 2
 4d0:	0e 94 41 00 	call	0x82	; 0x82 <DIO_WritePin>
 4d4:	8f ec       	ldi	r24, 0xCF	; 207
 4d6:	97 e0       	ldi	r25, 0x07	; 7
 4d8:	01 97       	sbiw	r24, 0x01	; 1
 4da:	f1 f7       	brne	.-4      	; 0x4d8 <LCD_WriteCommand+0xb4>
 4dc:	00 c0       	rjmp	.+0      	; 0x4de <LCD_WriteCommand+0xba>
 4de:	00 00       	nop
 4e0:	cf 91       	pop	r28
 4e2:	08 95       	ret

000004e4 <LCD_Init>:
 4e4:	2f eb       	ldi	r18, 0xBF	; 191
 4e6:	8a ed       	ldi	r24, 0xDA	; 218
 4e8:	90 e0       	ldi	r25, 0x00	; 0
 4ea:	21 50       	subi	r18, 0x01	; 1
 4ec:	80 40       	sbci	r24, 0x00	; 0
 4ee:	90 40       	sbci	r25, 0x00	; 0
 4f0:	e1 f7       	brne	.-8      	; 0x4ea <LCD_Init+0x6>
 4f2:	00 c0       	rjmp	.+0      	; 0x4f4 <LCD_Init+0x10>
 4f4:	00 00       	nop
 4f6:	82 e0       	ldi	r24, 0x02	; 2
 4f8:	0e 94 12 02 	call	0x424	; 0x424 <LCD_WriteCommand>
 4fc:	88 e2       	ldi	r24, 0x28	; 40
 4fe:	0e 94 12 02 	call	0x424	; 0x424 <LCD_WriteCommand>
 502:	8c e0       	ldi	r24, 0x0C	; 12
 504:	0e 94 12 02 	call	0x424	; 0x424 <LCD_WriteCommand>
 508:	81 e0       	ldi	r24, 0x01	; 1
 50a:	0e 94 12 02 	call	0x424	; 0x424 <LCD_WriteCommand>
 50e:	8f ec       	ldi	r24, 0xCF	; 207
 510:	97 e0       	ldi	r25, 0x07	; 7
 512:	01 97       	sbiw	r24, 0x01	; 1
 514:	f1 f7       	brne	.-4      	; 0x512 <LCD_Init+0x2e>
 516:	00 c0       	rjmp	.+0      	; 0x518 <LCD_Init+0x34>
 518:	00 00       	nop
 51a:	86 e0       	ldi	r24, 0x06	; 6
 51c:	0c 94 12 02 	jmp	0x424	; 0x424 <LCD_WriteCommand>

00000520 <LCD_WriteNumber>:
 520:	4f 92       	push	r4
 522:	5f 92       	push	r5
 524:	6f 92       	push	r6
 526:	7f 92       	push	r7
 528:	af 92       	push	r10
 52a:	bf 92       	push	r11
 52c:	cf 92       	push	r12
 52e:	df 92       	push	r13
 530:	ef 92       	push	r14
 532:	ff 92       	push	r15
 534:	1f 93       	push	r17
 536:	cf 93       	push	r28
 538:	df 93       	push	r29
 53a:	cd b7       	in	r28, 0x3d	; 61
 53c:	de b7       	in	r29, 0x3e	; 62
 53e:	64 97       	sbiw	r28, 0x14	; 20
 540:	0f b6       	in	r0, 0x3f	; 63
 542:	f8 94       	cli
 544:	de bf       	out	0x3e, r29	; 62
 546:	0f be       	out	0x3f, r0	; 63
 548:	cd bf       	out	0x3d, r28	; 61
 54a:	6b 01       	movw	r12, r22
 54c:	7c 01       	movw	r14, r24
 54e:	61 15       	cp	r22, r1
 550:	71 05       	cpc	r23, r1
 552:	81 05       	cpc	r24, r1
 554:	91 05       	cpc	r25, r1
 556:	09 f4       	brne	.+2      	; 0x55a <LCD_WriteNumber+0x3a>
 558:	46 c0       	rjmp	.+140    	; 0x5e6 <LCD_WriteNumber+0xc6>
 55a:	97 fd       	sbrc	r25, 7
 55c:	5a c0       	rjmp	.+180    	; 0x612 <LCD_WriteNumber+0xf2>
 55e:	10 e0       	ldi	r17, 0x00	; 0
 560:	9a e0       	ldi	r25, 0x0A	; 10
 562:	49 2e       	mov	r4, r25
 564:	51 2c       	mov	r5, r1
 566:	61 2c       	mov	r6, r1
 568:	71 2c       	mov	r7, r1
 56a:	01 c0       	rjmp	.+2      	; 0x56e <LCD_WriteNumber+0x4e>
 56c:	18 2f       	mov	r17, r24
 56e:	aa 24       	eor	r10, r10
 570:	a3 94       	inc	r10
 572:	b1 2c       	mov	r11, r1
 574:	ac 0e       	add	r10, r28
 576:	bd 1e       	adc	r11, r29
 578:	a1 0e       	add	r10, r17
 57a:	b1 1c       	adc	r11, r1
 57c:	c7 01       	movw	r24, r14
 57e:	b6 01       	movw	r22, r12
 580:	a3 01       	movw	r20, r6
 582:	92 01       	movw	r18, r4
 584:	0e 94 b5 03 	call	0x76a	; 0x76a <__divmodsi4>
 588:	60 5d       	subi	r22, 0xD0	; 208
 58a:	f5 01       	movw	r30, r10
 58c:	60 83       	st	Z, r22
 58e:	69 01       	movw	r12, r18
 590:	7a 01       	movw	r14, r20
 592:	81 e0       	ldi	r24, 0x01	; 1
 594:	81 0f       	add	r24, r17
 596:	c1 14       	cp	r12, r1
 598:	d1 04       	cpc	r13, r1
 59a:	e1 04       	cpc	r14, r1
 59c:	f1 04       	cpc	r15, r1
 59e:	31 f7       	brne	.-52     	; 0x56c <LCD_WriteNumber+0x4c>
 5a0:	17 fd       	sbrc	r17, 7
 5a2:	0d c0       	rjmp	.+26     	; 0x5be <LCD_WriteNumber+0x9e>
 5a4:	e1 e0       	ldi	r30, 0x01	; 1
 5a6:	f0 e0       	ldi	r31, 0x00	; 0
 5a8:	ec 0f       	add	r30, r28
 5aa:	fd 1f       	adc	r31, r29
 5ac:	e1 0f       	add	r30, r17
 5ae:	f1 1d       	adc	r31, r1
 5b0:	17 fd       	sbrc	r17, 7
 5b2:	fa 95       	dec	r31
 5b4:	80 81       	ld	r24, Z
 5b6:	0e 94 b2 01 	call	0x364	; 0x364 <LCD_WriteData>
 5ba:	11 50       	subi	r17, 0x01	; 1
 5bc:	98 f7       	brcc	.-26     	; 0x5a4 <LCD_WriteNumber+0x84>
 5be:	64 96       	adiw	r28, 0x14	; 20
 5c0:	0f b6       	in	r0, 0x3f	; 63
 5c2:	f8 94       	cli
 5c4:	de bf       	out	0x3e, r29	; 62
 5c6:	0f be       	out	0x3f, r0	; 63
 5c8:	cd bf       	out	0x3d, r28	; 61
 5ca:	df 91       	pop	r29
 5cc:	cf 91       	pop	r28
 5ce:	1f 91       	pop	r17
 5d0:	ff 90       	pop	r15
 5d2:	ef 90       	pop	r14
 5d4:	df 90       	pop	r13
 5d6:	cf 90       	pop	r12
 5d8:	bf 90       	pop	r11
 5da:	af 90       	pop	r10
 5dc:	7f 90       	pop	r7
 5de:	6f 90       	pop	r6
 5e0:	5f 90       	pop	r5
 5e2:	4f 90       	pop	r4
 5e4:	08 95       	ret
 5e6:	80 e3       	ldi	r24, 0x30	; 48
 5e8:	64 96       	adiw	r28, 0x14	; 20
 5ea:	0f b6       	in	r0, 0x3f	; 63
 5ec:	f8 94       	cli
 5ee:	de bf       	out	0x3e, r29	; 62
 5f0:	0f be       	out	0x3f, r0	; 63
 5f2:	cd bf       	out	0x3d, r28	; 61
 5f4:	df 91       	pop	r29
 5f6:	cf 91       	pop	r28
 5f8:	1f 91       	pop	r17
 5fa:	ff 90       	pop	r15
 5fc:	ef 90       	pop	r14
 5fe:	df 90       	pop	r13
 600:	cf 90       	pop	r12
 602:	bf 90       	pop	r11
 604:	af 90       	pop	r10
 606:	7f 90       	pop	r7
 608:	6f 90       	pop	r6
 60a:	5f 90       	pop	r5
 60c:	4f 90       	pop	r4
 60e:	0c 94 b2 01 	jmp	0x364	; 0x364 <LCD_WriteData>
 612:	f0 94       	com	r15
 614:	e0 94       	com	r14
 616:	d0 94       	com	r13
 618:	c0 94       	com	r12
 61a:	c1 1c       	adc	r12, r1
 61c:	d1 1c       	adc	r13, r1
 61e:	e1 1c       	adc	r14, r1
 620:	f1 1c       	adc	r15, r1
 622:	8d e2       	ldi	r24, 0x2D	; 45
 624:	0e 94 b2 01 	call	0x364	; 0x364 <LCD_WriteData>
 628:	9a cf       	rjmp	.-204    	; 0x55e <LCD_WriteNumber+0x3e>

0000062a <LCD_WriteString>:
 62a:	0f 93       	push	r16
 62c:	1f 93       	push	r17
 62e:	cf 93       	push	r28
 630:	fc 01       	movw	r30, r24
 632:	80 81       	ld	r24, Z
 634:	88 23       	and	r24, r24
 636:	59 f0       	breq	.+22     	; 0x64e <LCD_WriteString+0x24>
 638:	8f 01       	movw	r16, r30
 63a:	c0 e0       	ldi	r28, 0x00	; 0
 63c:	0e 94 b2 01 	call	0x364	; 0x364 <LCD_WriteData>
 640:	cf 5f       	subi	r28, 0xFF	; 255
 642:	f8 01       	movw	r30, r16
 644:	ec 0f       	add	r30, r28
 646:	f1 1d       	adc	r31, r1
 648:	80 81       	ld	r24, Z
 64a:	81 11       	cpse	r24, r1
 64c:	f7 cf       	rjmp	.-18     	; 0x63c <LCD_WriteString+0x12>
 64e:	cf 91       	pop	r28
 650:	1f 91       	pop	r17
 652:	0f 91       	pop	r16
 654:	08 95       	ret

00000656 <LCD_SetCursor>:
 656:	88 23       	and	r24, r24
 658:	19 f0       	breq	.+6      	; 0x660 <LCD_SetCursor+0xa>
 65a:	81 30       	cpi	r24, 0x01	; 1
 65c:	29 f0       	breq	.+10     	; 0x668 <LCD_SetCursor+0x12>
 65e:	08 95       	ret
 660:	80 e8       	ldi	r24, 0x80	; 128
 662:	86 0f       	add	r24, r22
 664:	0c 94 12 02 	jmp	0x424	; 0x424 <LCD_WriteCommand>
 668:	80 ec       	ldi	r24, 0xC0	; 192
 66a:	86 0f       	add	r24, r22
 66c:	0c 94 12 02 	jmp	0x424	; 0x424 <LCD_WriteCommand>

00000670 <stack_test>:
 670:	cf 92       	push	r12
 672:	df 92       	push	r13
 674:	ef 92       	push	r14
 676:	ff 92       	push	r15
 678:	cf 93       	push	r28
 67a:	df 93       	push	r29
 67c:	80 e9       	ldi	r24, 0x90	; 144
 67e:	c8 2e       	mov	r12, r24
 680:	d1 2c       	mov	r13, r1
 682:	e1 2c       	mov	r14, r1
 684:	f1 2c       	mov	r15, r1
 686:	cf e8       	ldi	r28, 0x8F	; 143
 688:	d0 e0       	ldi	r29, 0x00	; 0
 68a:	21 c0       	rjmp	.+66     	; 0x6ce <stack_test+0x5e>
 68c:	62 e0       	ldi	r22, 0x02	; 2
 68e:	81 e0       	ldi	r24, 0x01	; 1
 690:	0e 94 2b 03 	call	0x656	; 0x656 <LCD_SetCursor>
 694:	c7 01       	movw	r24, r14
 696:	b6 01       	movw	r22, r12
 698:	0e 94 90 02 	call	0x520	; 0x520 <LCD_WriteNumber>
 69c:	69 e0       	ldi	r22, 0x09	; 9
 69e:	81 e0       	ldi	r24, 0x01	; 1
 6a0:	0e 94 2b 03 	call	0x656	; 0x656 <LCD_SetCursor>
 6a4:	68 81       	ld	r22, Y
 6a6:	70 e0       	ldi	r23, 0x00	; 0
 6a8:	80 e0       	ldi	r24, 0x00	; 0
 6aa:	90 e0       	ldi	r25, 0x00	; 0
 6ac:	0e 94 90 02 	call	0x520	; 0x520 <LCD_WriteNumber>
 6b0:	8f ec       	ldi	r24, 0xCF	; 207
 6b2:	97 e0       	ldi	r25, 0x07	; 7
 6b4:	01 97       	sbiw	r24, 0x01	; 1
 6b6:	f1 f7       	brne	.-4      	; 0x6b4 <stack_test+0x44>
 6b8:	00 c0       	rjmp	.+0      	; 0x6ba <stack_test+0x4a>
 6ba:	00 00       	nop
 6bc:	9f ef       	ldi	r25, 0xFF	; 255
 6be:	c9 1a       	sub	r12, r25
 6c0:	d9 0a       	sbc	r13, r25
 6c2:	e9 0a       	sbc	r14, r25
 6c4:	f9 0a       	sbc	r15, r25
 6c6:	c0 36       	cpi	r28, 0x60	; 96
 6c8:	88 e0       	ldi	r24, 0x08	; 8
 6ca:	d8 07       	cpc	r29, r24
 6cc:	59 f0       	breq	.+22     	; 0x6e4 <stack_test+0x74>
 6ce:	ce 01       	movw	r24, r28
 6d0:	29 91       	ld	r18, Y+
 6d2:	25 35       	cpi	r18, 0x55	; 85
 6d4:	d9 f2       	breq	.-74     	; 0x68c <stack_test+0x1c>
 6d6:	df 91       	pop	r29
 6d8:	cf 91       	pop	r28
 6da:	ff 90       	pop	r15
 6dc:	ef 90       	pop	r14
 6de:	df 90       	pop	r13
 6e0:	cf 90       	pop	r12
 6e2:	08 95       	ret
 6e4:	df 91       	pop	r29
 6e6:	cf 91       	pop	r28
 6e8:	ff 90       	pop	r15
 6ea:	ef 90       	pop	r14
 6ec:	df 90       	pop	r13
 6ee:	cf 90       	pop	r12
 6f0:	08 95       	ret

000006f2 <main>:
 6f2:	cf 93       	push	r28
 6f4:	df 93       	push	r29
 6f6:	00 d0       	rcall	.+0      	; 0x6f8 <main+0x6>
 6f8:	cd b7       	in	r28, 0x3d	; 61
 6fa:	de b7       	in	r29, 0x3e	; 62
 6fc:	ef e8       	ldi	r30, 0x8F	; 143
 6fe:	f0 e0       	ldi	r31, 0x00	; 0
 700:	85 e5       	ldi	r24, 0x55	; 85
 702:	81 93       	st	Z+, r24
 704:	e0 36       	cpi	r30, 0x60	; 96
 706:	28 e0       	ldi	r18, 0x08	; 8
 708:	f2 07       	cpc	r31, r18
 70a:	d9 f7       	brne	.-10     	; 0x702 <main+0x10>
 70c:	0e 94 ca 00 	call	0x194	; 0x194 <DIO_Init>
 710:	0e 94 72 02 	call	0x4e4	; 0x4e4 <LCD_Init>
 714:	80 e8       	ldi	r24, 0x80	; 128
 716:	90 e0       	ldi	r25, 0x00	; 0
 718:	0e 94 15 03 	call	0x62a	; 0x62a <LCD_WriteString>
 71c:	60 e0       	ldi	r22, 0x00	; 0
 71e:	81 e0       	ldi	r24, 0x01	; 1
 720:	0e 94 2b 03 	call	0x656	; 0x656 <LCD_SetCursor>
 724:	60 e0       	ldi	r22, 0x00	; 0
 726:	70 e0       	ldi	r23, 0x00	; 0
 728:	84 e3       	ldi	r24, 0x34	; 52
 72a:	0e 94 a1 01 	call	0x342	; 0x342 <EEPROM_Write>
 72e:	85 e0       	ldi	r24, 0x05	; 5
 730:	89 83       	std	Y+1, r24	; 0x01
 732:	60 e0       	ldi	r22, 0x00	; 0
 734:	70 e0       	ldi	r23, 0x00	; 0
 736:	ce 01       	movw	r24, r28
 738:	02 96       	adiw	r24, 0x02	; 2
 73a:	0e 94 a9 01 	call	0x352	; 0x352 <EEPROM_Read>
 73e:	6a 81       	ldd	r22, Y+2	; 0x02
 740:	70 e0       	ldi	r23, 0x00	; 0
 742:	80 e0       	ldi	r24, 0x00	; 0
 744:	90 e0       	ldi	r25, 0x00	; 0
 746:	0e 94 90 02 	call	0x520	; 0x520 <LCD_WriteNumber>
 74a:	61 e0       	ldi	r22, 0x01	; 1
 74c:	82 e1       	ldi	r24, 0x12	; 18
 74e:	0e 94 41 00 	call	0x82	; 0x82 <DIO_WritePin>
 752:	8f ef       	ldi	r24, 0xFF	; 255
 754:	91 e1       	ldi	r25, 0x11	; 17
 756:	2a e7       	ldi	r18, 0x7A	; 122
 758:	81 50       	subi	r24, 0x01	; 1
 75a:	90 40       	sbci	r25, 0x00	; 0
 75c:	20 40       	sbci	r18, 0x00	; 0
 75e:	e1 f7       	brne	.-8      	; 0x758 <main+0x66>
 760:	00 c0       	rjmp	.+0      	; 0x762 <main+0x70>
 762:	00 00       	nop
 764:	0e 94 38 03 	call	0x670	; 0x670 <stack_test>
 768:	ff cf       	rjmp	.-2      	; 0x768 <main+0x76>

0000076a <__divmodsi4>:
 76a:	05 2e       	mov	r0, r21
 76c:	97 fb       	bst	r25, 7
 76e:	1e f4       	brtc	.+6      	; 0x776 <__divmodsi4+0xc>
 770:	00 94       	com	r0
 772:	0e 94 cc 03 	call	0x798	; 0x798 <__negsi2>
 776:	57 fd       	sbrc	r21, 7
 778:	07 d0       	rcall	.+14     	; 0x788 <__divmodsi4_neg2>
 77a:	0e 94 d4 03 	call	0x7a8	; 0x7a8 <__udivmodsi4>
 77e:	07 fc       	sbrc	r0, 7
 780:	03 d0       	rcall	.+6      	; 0x788 <__divmodsi4_neg2>
 782:	4e f4       	brtc	.+18     	; 0x796 <__divmodsi4_exit>
 784:	0c 94 cc 03 	jmp	0x798	; 0x798 <__negsi2>

00000788 <__divmodsi4_neg2>:
 788:	50 95       	com	r21
 78a:	40 95       	com	r20
 78c:	30 95       	com	r19
 78e:	21 95       	neg	r18
 790:	3f 4f       	sbci	r19, 0xFF	; 255
 792:	4f 4f       	sbci	r20, 0xFF	; 255
 794:	5f 4f       	sbci	r21, 0xFF	; 255

00000796 <__divmodsi4_exit>:
 796:	08 95       	ret

00000798 <__negsi2>:
 798:	90 95       	com	r25
 79a:	80 95       	com	r24
 79c:	70 95       	com	r23
 79e:	61 95       	neg	r22
 7a0:	7f 4f       	sbci	r23, 0xFF	; 255
 7a2:	8f 4f       	sbci	r24, 0xFF	; 255
 7a4:	9f 4f       	sbci	r25, 0xFF	; 255
 7a6:	08 95       	ret

000007a8 <__udivmodsi4>:
 7a8:	a1 e2       	ldi	r26, 0x21	; 33
 7aa:	1a 2e       	mov	r1, r26
 7ac:	aa 1b       	sub	r26, r26
 7ae:	bb 1b       	sub	r27, r27
 7b0:	fd 01       	movw	r30, r26
 7b2:	0d c0       	rjmp	.+26     	; 0x7ce <__udivmodsi4_ep>

000007b4 <__udivmodsi4_loop>:
 7b4:	aa 1f       	adc	r26, r26
 7b6:	bb 1f       	adc	r27, r27
 7b8:	ee 1f       	adc	r30, r30
 7ba:	ff 1f       	adc	r31, r31
 7bc:	a2 17       	cp	r26, r18
 7be:	b3 07       	cpc	r27, r19
 7c0:	e4 07       	cpc	r30, r20
 7c2:	f5 07       	cpc	r31, r21
 7c4:	20 f0       	brcs	.+8      	; 0x7ce <__udivmodsi4_ep>
 7c6:	a2 1b       	sub	r26, r18
 7c8:	b3 0b       	sbc	r27, r19
 7ca:	e4 0b       	sbc	r30, r20
 7cc:	f5 0b       	sbc	r31, r21

000007ce <__udivmodsi4_ep>:
 7ce:	66 1f       	adc	r22, r22
 7d0:	77 1f       	adc	r23, r23
 7d2:	88 1f       	adc	r24, r24
 7d4:	99 1f       	adc	r25, r25
 7d6:	1a 94       	dec	r1
 7d8:	69 f7       	brne	.-38     	; 0x7b4 <__udivmodsi4_loop>
 7da:	60 95       	com	r22
 7dc:	70 95       	com	r23
 7de:	80 95       	com	r24
 7e0:	90 95       	com	r25
 7e2:	9b 01       	movw	r18, r22
 7e4:	ac 01       	movw	r20, r24
 7e6:	bd 01       	movw	r22, r26
 7e8:	cf 01       	movw	r24, r30
 7ea:	08 95       	ret

000007ec <_exit>:
 7ec:	f8 94       	cli

000007ee <__stop_program>:
 7ee:	ff cf       	rjmp	.-2      	; 0x7ee <__stop_program>
